; Function Attrs: mustprogress nofree norecurse nosync nounwind willreturn memory(read, inaccessiblemem: none) uwtable
define dso_local range(i32 0, 2) i32 @gres_find_job_by_key_with_cnt(ptr noundef readonly captures(none) %0, ptr noundef readonly captures(none) %1) local_unnamed_addr #1 {
  %3 = getelementptr inbounds nuw i8, ptr %0, i64 8
  %4 = load ptr, ptr %3, align 8
  %5 = getelementptr inbounds nuw i8, ptr %0, i64 4
  %6 = load i32, ptr %5, align 4
  %7 = getelementptr inbounds nuw i8, ptr %1, i64 8
  %8 = load i32, ptr %7, align 4
  %9 = icmp eq i32 %6, %8
  br i1 %9, label %10, label %gres_find_job_by_key.exit

10:                                               ; preds = %2
  %11 = getelementptr inbounds nuw i8, ptr %1, i64 12
  %12 = load i32, ptr %11, align 4
  %13 = icmp eq i32 %12, -2
  br i1 %13, label %17, label %14

14:                                               ; preds = %10
  %15 = load i32, ptr %4, align 8
  %16 = icmp eq i32 %15, %12
  br i1 %16, label %17, label %gres_find_job_by_key.exit

17:                                               ; preds = %14, %10
  %18 = getelementptr inbounds nuw i8, ptr %4, i64 136
  %19 = load i32, ptr %18, align 8
  %.not12 = icmp eq i32 %19, 0
  br i1 %.not12, label %gres_find_job_by_key.exit, label %20

20:                                               ; preds = %17
  %21 = getelementptr inbounds nuw i8, ptr %1, i64 4
  %22 = load i32, ptr %21, align 4
  %23 = icmp ult i32 %22, %19
  br i1 %23, label %24, label %30

24:                                               ; preds = %20
  %25 = getelementptr inbounds nuw i8, ptr %4, i64 152
  %26 = load ptr, ptr %25, align 8
  %27 = sext i32 %22 to i64
  %28 = getelementptr inbounds i64, ptr %26, i64 %27
  %29 = load i64, ptr %28, align 8
  %.not13 = icmp eq i64 %29, 0
  br i1 %.not13, label %30, label %gres_find_job_by_key.exit

30:                                               ; preds = %24, %20
  br label %gres_find_job_by_key.exit

gres_find_job_by_key.exit:                        ; preds = %14, %2, %17, %24, %30
  %.0 = phi i32 [ 0, %30 ], [ 1, %24 ], [ 1, %17 ], [ 0, %2 ], [ 0, %14 ]
  ret i32 %.0
}